; Function Attrs: mustprogress nofree norecurse nosync nounwind willreturn memory(argmem: readwrite) uwtable
define noundef range(i64 -72, 4294967304) i64 @_ZN11duckdb_zstd24ZSTD_writeSkippableFrameEPvmPKvmj(ptr noundef writeonly captures(none) %0, i64 noundef %1, ptr noundef readonly captures(none) %2, i64 noundef %3, i32 noundef %4) local_unnamed_addr #9 {
  %6 = add i64 %3, 8
  %7 = icmp ult i64 %1, %6
  br i1 %7, label %17, label %8

8:                                                ; preds = %5
  %9 = icmp ugt i64 %3, 4294967295
  br i1 %9, label %17, label %10

10:                                               ; preds = %8
  %11 = icmp ugt i32 %4, 15
  br i1 %11, label %17, label %12

12:                                               ; preds = %10
  %13 = or disjoint i32 %4, 407710288
  store i32 %13, ptr %0, align 1, !tbaa !62
  %14 = getelementptr inbounds nuw i8, ptr %0, i64 4
  %15 = trunc nuw i64 %3 to i32
  store i32 %15, ptr %14, align 1, !tbaa !62
  %16 = getelementptr inbounds nuw i8, ptr %0, i64 8
  tail call void @llvm.memcpy.p0.p0.i64(ptr nonnull align 1 %16, ptr align 1 %2, i64 %3, i1 false)
  br label %17

17:                                               ; preds = %10, %8, %5, %12
  %.0 = phi i64 [ %6, %12 ], [ -70, %5 ], [ -72, %8 ], [ -42, %10 ]
  ret i64 %.0
}